; Function Attrs: mustprogress nofree norecurse nosync nounwind willreturn memory(argmem: readwrite) uwtable
define internal void @fromFLTto8(ptr nocapture noundef writeonly %0, ptr nocapture noundef readonly %1) #3 {
  %3 = load float, ptr %1, align 4
  %4 = fpext float %3 to double
  %5 = fmul double %4, 2.550000e+02
  %6 = fadd double %5, 5.000000e-01
  %7 = fcmp ugt double %6, 0.000000e+00
  br i1 %7, label %8, label %_cmsQuickSaturateByte.exit

8:                                                ; preds = %2
  %9 = fcmp ult double %6, 2.550000e+02
  br i1 %9, label %10, label %_cmsQuickSaturateByte.exit

10:                                               ; preds = %8
  %11 = fadd double %6, -3.276700e+04
  %12 = tail call double @llvm.floor.f64(double %11)
  %13 = fptosi double %12 to i32
  %14 = trunc i32 %13 to i8
  %15 = add i8 %14, -1
  br label %_cmsQuickSaturateByte.exit

_cmsQuickSaturateByte.exit:                       ; preds = %2, %8, %10
  %.0.i = phi i8 [ %15, %10 ], [ 0, %2 ], [ -1, %8 ]
  store i8 %.0.i, ptr %0, align 1
  ret void
}